; Function Attrs: mustprogress nofree norecurse nosync nounwind willreturn memory(none) uwtable
define internal noundef i32 @_ZL14VL_SHIFTRS_IIIiiijj(i32 noundef %0, i32 noundef %1, i32 %2, i32 noundef %3, i32 noundef %4) #5 {
  %6 = add nsw i32 %1, -1
  %7 = lshr i32 %3, %6
  %8 = sub i32 0, %7
  %9 = icmp ugt i32 %4, 31
  br i1 %9, label %10, label %15

10:                                               ; preds = %5
  %11 = and i32 %0, 31
  %.not19 = icmp eq i32 %11, 0
  %notmask20 = shl nsw i32 -1, %11
  %12 = xor i32 %notmask20, -1
  %13 = select i1 %.not19, i32 -1, i32 %12
  %14 = and i32 %13, %8
  br label %28

15:                                               ; preds = %5
  %16 = and i32 %1, 31
  %.not = icmp eq i32 %16, 0
  %notmask = shl nsw i32 -1, %16
  %17 = xor i32 %notmask, -1
  %18 = select i1 %.not, i32 -1, i32 %17
  %19 = lshr i32 %18, %4
  %20 = xor i32 %19, -1
  %21 = lshr i32 %3, %4
  %22 = and i32 %0, 31
  %.not17 = icmp eq i32 %22, 0
  %notmask18 = shl nsw i32 -1, %22
  %23 = xor i32 %notmask18, -1
  %24 = select i1 %.not17, i32 -1, i32 %23
  %25 = and i32 %24, %20
  %26 = and i32 %25, %8
  %27 = or i32 %26, %21
  br label %28

28:                                               ; preds = %15, %10
  %.0 = phi i32 [ %14, %10 ], [ %27, %15 ]
  ret i32 %.0
}